target datalayout = "e-m:e-p270:32:32-p271:32:32-p272:64:64-i64:64-i128:128-f80:128-n8:16:32:64-S128"
target triple = "x86_64-pc-linux-gnu"

%"class.icu_77::Quantifier" = type { %"class.icu_77::UnicodeFunctor", %"class.icu_77::UnicodeMatcher", ptr, i32, i32 }
%"class.icu_77::UnicodeFunctor" = type { %"class.icu_77::UObject" }
%"class.icu_77::UObject" = type { ptr }
%"class.icu_77::UnicodeMatcher" = type { ptr }

; Function Attrs: mustprogress uwtable
define noundef i32 @_ZN6icu_7710Quantifier7matchesERKNS_11ReplaceableERiia(ptr noundef nonnull align 8 dereferenceable(32) %0, ptr noundef nonnull align 8 dereferenceable(8) %1, ptr noundef nonnull align 4 dereferenceable(4) %2, i32 noundef %3, i8 noundef signext %4) unnamed_addr #1 align 2 {
  %6 = alloca i32, align 4
  %7 = alloca ptr, align 8
  %8 = alloca ptr, align 8
  %9 = alloca ptr, align 8
  %10 = alloca i32, align 4
  %11 = alloca i8, align 1
  %12 = alloca i32, align 4
  %13 = alloca i32, align 4
  %14 = alloca i32, align 4
  %15 = alloca i32, align 4
  %16 = alloca i32, align 4
  store ptr %0, ptr %7, align 8, !tbaa !23
  store ptr %1, ptr %8, align 8, !tbaa !38
  store ptr %2, ptr %9, align 8, !tbaa !20
  store i32 %3, ptr %10, align 4, !tbaa !14
  store i8 %4, ptr %11, align 1, !tbaa !40
  %17 = load ptr, ptr %7, align 8
  call void @llvm.lifetime.start.p0(i64 4, ptr %12) #12
  %18 = load ptr, ptr %9, align 8, !tbaa !20
  %19 = load i32, ptr %18, align 4, !tbaa !14
  store i32 %19, ptr %12, align 4, !tbaa !14
  call void @llvm.lifetime.start.p0(i64 4, ptr %13) #12
  store i32 0, ptr %13, align 4, !tbaa !14
  br label %20

20:                                               ; preds = %64, %5
  %21 = load i32, ptr %13, align 4, !tbaa !14
  %22 = getelementptr inbounds nuw %"class.icu_77::Quantifier", ptr %17, i32 0, i32 4
  %23 = load i32, ptr %22, align 4, !tbaa !35
  %24 = icmp ult i32 %21, %23
  br i1 %24, label %25, label %65

25:                                               ; preds = %20
  call void @llvm.lifetime.start.p0(i64 4, ptr %14) #12
  %26 = load ptr, ptr %9, align 8, !tbaa !20
  %27 = load i32, ptr %26, align 4, !tbaa !14
  store i32 %27, ptr %14, align 4, !tbaa !14
  call void @llvm.lifetime.start.p0(i64 4, ptr %15) #12
  %28 = getelementptr inbounds nuw %"class.icu_77::Quantifier", ptr %17, i32 0, i32 2
  %29 = load ptr, ptr %28, align 8, !tbaa !29
  %30 = load ptr, ptr %29, align 8, !tbaa !27
  %31 = getelementptr inbounds ptr, ptr %30, i64 4
  %32 = load ptr, ptr %31, align 8
  %33 = call noundef ptr %32(ptr noundef nonnull align 8 dereferenceable(8) %29)
  %34 = load ptr, ptr %8, align 8, !tbaa !38
  %35 = load ptr, ptr %9, align 8, !tbaa !20
  %36 = load i32, ptr %10, align 4, !tbaa !14
  %37 = load i8, ptr %11, align 1, !tbaa !40
  %38 = load ptr, ptr %33, align 8, !tbaa !27
  %39 = getelementptr inbounds ptr, ptr %38, i64 2
  %40 = load ptr, ptr %39, align 8
  %41 = call noundef i32 %40(ptr noundef nonnull align 8 dereferenceable(8) %33, ptr noundef nonnull align 8 dereferenceable(8) %34, ptr noundef nonnull align 4 dereferenceable(4) %35, i32 noundef %36, i8 noundef signext %37)
  store i32 %41, ptr %15, align 4, !tbaa !41
  %42 = load i32, ptr %15, align 4, !tbaa !41
  %43 = icmp eq i32 %42, 2
  br i1 %43, label %44, label %53

44:                                               ; preds = %25
  %45 = load i32, ptr %13, align 4, !tbaa !14
  %46 = add i32 %45, 1
  store i32 %46, ptr %13, align 4, !tbaa !14
  %47 = load i32, ptr %14, align 4, !tbaa !14
  %48 = load ptr, ptr %9, align 8, !tbaa !20
  %49 = load i32, ptr %48, align 4, !tbaa !14
  %50 = icmp eq i32 %47, %49
  br i1 %50, label %51, label %52

51:                                               ; preds = %44
  store i32 3, ptr %16, align 4
  br label %62

52:                                               ; preds = %44
  br label %61

53:                                               ; preds = %25
  %54 = load i8, ptr %11, align 1, !tbaa !40
  %55 = icmp ne i8 %54, 0
  br i1 %55, label %56, label %60

56:                                               ; preds = %53
  %57 = load i32, ptr %15, align 4, !tbaa !41
  %58 = icmp eq i32 %57, 1
  br i1 %58, label %59, label %60

59:                                               ; preds = %56
  store i32 1, ptr %6, align 4
  store i32 1, ptr %16, align 4
  br label %62

60:                                               ; preds = %56, %53
  store i32 3, ptr %16, align 4
  br label %62

61:                                               ; preds = %52
  store i32 0, ptr %16, align 4
  br label %62

62:                                               ; preds = %61, %60, %59, %51
  call void @llvm.lifetime.end.p0(i64 4, ptr %15) #12
  call void @llvm.lifetime.end.p0(i64 4, ptr %14) #12
  %63 = load i32, ptr %16, align 4
  switch i32 %63, label %83 [
    i32 0, label %64
    i32 3, label %65
  ]

64:                                               ; preds = %62
  br label %20, !llvm.loop !43

65:                                               ; preds = %62, %20
  %66 = load i8, ptr %11, align 1, !tbaa !40
  %67 = icmp ne i8 %66, 0
  br i1 %67, label %68, label %74

68:                                               ; preds = %65
  %69 = load ptr, ptr %9, align 8, !tbaa !20
  %70 = load i32, ptr %69, align 4, !tbaa !14
  %71 = load i32, ptr %10, align 4, !tbaa !14
  %72 = icmp eq i32 %70, %71
  br i1 %72, label %73, label %74

73:                                               ; preds = %68
  store i32 1, ptr %6, align 4
  store i32 1, ptr %16, align 4
  br label %83

74:                                               ; preds = %68, %65
  %75 = load i32, ptr %13, align 4, !tbaa !14
  %76 = getelementptr inbounds nuw %"class.icu_77::Quantifier", ptr %17, i32 0, i32 3
  %77 = load i32, ptr %76, align 8, !tbaa !34
  %78 = icmp uge i32 %75, %77
  br i1 %78, label %79, label %80

79:                                               ; preds = %74
  store i32 2, ptr %6, align 4
  store i32 1, ptr %16, align 4
  br label %83

80:                                               ; preds = %74
  %81 = load i32, ptr %12, align 4, !tbaa !14
  %82 = load ptr, ptr %9, align 8, !tbaa !20
  store i32 %81, ptr %82, align 4, !tbaa !14
  store i32 0, ptr %6, align 4
  store i32 1, ptr %16, align 4
  br label %83

83:                                               ; preds = %80, %79, %73, %62
  call void @llvm.lifetime.end.p0(i64 4, ptr %13) #12
  call void @llvm.lifetime.end.p0(i64 4, ptr %12) #12
  %84 = load i32, ptr %6, align 4
  ret i32 %84
}

; Function Attrs: uwtable
define noundef i32 @_ZThn8_N6icu_7710Quantifier7matchesERKNS_11ReplaceableERiia(ptr noundef %0, ptr noundef nonnull align 8 dereferenceable(8) %1, ptr noundef nonnull align 4 dereferenceable(4) %2, i32 noundef %3, i8 noundef signext %4) unnamed_addr #11 align 2 {
  %6 = alloca ptr, align 8
  %7 = alloca ptr, align 8
  %8 = alloca ptr, align 8
  %9 = alloca i32, align 4
  %10 = alloca i8, align 1
  store ptr %0, ptr %6, align 8, !tbaa !23
  store ptr %1, ptr %7, align 8, !tbaa !38
  store ptr %2, ptr %8, align 8, !tbaa !20
  store i32 %3, ptr %9, align 4, !tbaa !14
  store i8 %4, ptr %10, align 1, !tbaa !40
  %11 = load ptr, ptr %6, align 8
  %12 = getelementptr inbounds i8, ptr %11, i64 -8
  %13 = load ptr, ptr %7, align 8
  %14 = load ptr, ptr %8, align 8
  %15 = load i32, ptr %9, align 4, !tbaa !14
  %16 = load i8, ptr %10, align 1, !tbaa !40
  %17 = tail call noundef i32 @_ZN6icu_7710Quantifier7matchesERKNS_11ReplaceableERiia(ptr noundef nonnull align 8 dereferenceable(32) %12, ptr noundef nonnull align 8 dereferenceable(8) %13, ptr noundef nonnull align 4 dereferenceable(4) %14, i32 noundef %15, i8 noundef signext %16)
  ret i32 %17
}